target datalayout = "e-m:e-p270:32:32-p271:32:32-p272:64:64-i64:64-i128:128-f80:128-n8:16:32:64-S128"
target triple = "x86_64-pc-linux-gnu"

%struct.pointf_s = type { double, double }
%struct.Agobj_s = type { %struct.Agtag_s, ptr }
%struct.Agtag_s = type { i32, i64 }
%struct.Agnodeinfo_t = type { %struct.Agrec_s, ptr, ptr, %struct.pointf_s, double, double, %struct.boxf, double, double, double, double, double, ptr, ptr, ptr, i8, i8, i8, i8, i32, i32, i32, ptr, double, i8, i8, ptr, ptr, i8, i64, i8, i8, i8, ptr, ptr, %struct.elist, %struct.elist, %struct.elist, %struct.elist, %struct.elist, ptr, i32, ptr, i32, i32, double, %struct.elist, %struct.elist, %struct.elist, %struct.elist, ptr, i32, i32, i32, [1 x double] }
%struct.Agrec_s = type { ptr, ptr }
%struct.boxf = type { %struct.pointf_s, %struct.pointf_s }
%struct.elist = type { ptr, i64 }
%struct.Agedge_s = type { %struct.Agobj_s, %struct.dtlink_s_, %struct.dtlink_s_, ptr }
%struct.dtlink_s_ = type { ptr, %union.anon }
%union.anon = type { ptr }

@.str.1 = private unnamed_addr constant [7 x i8] c"weight\00", align 1
@.str.2 = private unnamed_addr constant [4 x i8] c"%lf\00", align 1
@stderr = external global ptr, align 8
@.str.11 = private unnamed_addr constant [58 x i8] c"integer overflow when trying to allocate %zu * %zu bytes\0A\00", align 1
@.str.12 = private unnamed_addr constant [49 x i8] c"out of memory when trying to allocate %zu bytes\0A\00", align 1

; Function Attrs: inlinehint nounwind uwtable
define internal ptr @gv_calloc(i64 noundef %0, i64 noundef %1) #2 {
  %3 = alloca i64, align 8
  %4 = alloca i64, align 8
  %5 = alloca ptr, align 8
  store i64 %0, ptr %3, align 8, !tbaa !46
  store i64 %1, ptr %4, align 8, !tbaa !46
  %6 = load i64, ptr %3, align 8, !tbaa !46
  %7 = icmp ugt i64 %6, 0
  br i1 %7, label %8, label %18

8:                                                ; preds = %2
  %9 = load i64, ptr %3, align 8, !tbaa !46
  %10 = udiv i64 -1, %9
  %11 = load i64, ptr %4, align 8, !tbaa !46
  %12 = icmp ult i64 %10, %11
  br i1 %12, label %13, label %18

13:                                               ; preds = %8
  %14 = load ptr, ptr @stderr, align 8, !tbaa !47
  %15 = load i64, ptr %3, align 8, !tbaa !46
  %16 = load i64, ptr %4, align 8, !tbaa !46
  %17 = call i32 (ptr, ptr, ...) @fprintf(ptr noundef %14, ptr noundef @.str.11, i64 noundef %15, i64 noundef %16) #13
  call void @graphviz_exit(i32 noundef 1) #14
  unreachable

18:                                               ; preds = %8, %2
  call void @llvm.lifetime.start.p0(i64 8, ptr %5) #13
  %19 = load i64, ptr %3, align 8, !tbaa !46
  %20 = load i64, ptr %4, align 8, !tbaa !46
  %21 = call noalias ptr @calloc(i64 noundef %19, i64 noundef %20) #15
  store ptr %21, ptr %5, align 8, !tbaa !49
  %22 = load i64, ptr %3, align 8, !tbaa !46
  %23 = icmp ugt i64 %22, 0
  br i1 %23, label %24, label %36

24:                                               ; preds = %18
  %25 = load i64, ptr %4, align 8, !tbaa !46
  %26 = icmp ugt i64 %25, 0
  br i1 %26, label %27, label %36

27:                                               ; preds = %24
  %28 = load ptr, ptr %5, align 8, !tbaa !49
  %29 = icmp eq ptr %28, null
  br i1 %29, label %30, label %36

30:                                               ; preds = %27
  %31 = load ptr, ptr @stderr, align 8, !tbaa !47
  %32 = load i64, ptr %3, align 8, !tbaa !46
  %33 = load i64, ptr %4, align 8, !tbaa !46
  %34 = mul i64 %32, %33
  %35 = call i32 (ptr, ptr, ...) @fprintf(ptr noundef %31, ptr noundef @.str.12, i64 noundef %34) #13
  call void @graphviz_exit(i32 noundef 1) #14
  unreachable

36:                                               ; preds = %27, %24, %18
  %37 = load ptr, ptr %5, align 8, !tbaa !49
  call void @llvm.lifetime.end.p0(i64 8, ptr %5) #13
  ret ptr %37
}

; Function Attrs: nounwind uwtable
define ptr @makeMatrix(ptr noundef %0) #0 {
  %2 = alloca ptr, align 8
  %3 = alloca ptr, align 8
  %4 = alloca i32, align 4
  %5 = alloca i32, align 4
  %6 = alloca i32, align 4
  %7 = alloca ptr, align 8
  %8 = alloca ptr, align 8
  %9 = alloca ptr, align 8
  %10 = alloca ptr, align 8
  %11 = alloca ptr, align 8
  %12 = alloca ptr, align 8
  %13 = alloca i32, align 4
  %14 = alloca i32, align 4
  %15 = alloca ptr, align 8
  %16 = alloca double, align 8
  %17 = alloca ptr, align 8
  store ptr %0, ptr %3, align 8, !tbaa !3
  %18 = load ptr, ptr %3, align 8, !tbaa !3
  %19 = icmp ne ptr %18, null
  br i1 %19, label %21, label %20

20:                                               ; preds = %1
  store ptr null, ptr %2, align 8
  br label %140

21:                                               ; preds = %1
  call void @llvm.lifetime.start.p0(i64 4, ptr %4) #13
  %22 = load ptr, ptr %3, align 8, !tbaa !3
  %23 = call i32 @agnnodes(ptr noundef %22)
  store i32 %23, ptr %4, align 4, !tbaa !16
  call void @llvm.lifetime.start.p0(i64 4, ptr %5) #13
  %24 = load ptr, ptr %3, align 8, !tbaa !3
  %25 = call i32 @agnedges(ptr noundef %24)
  store i32 %25, ptr %5, align 4, !tbaa !16
  call void @llvm.lifetime.start.p0(i64 4, ptr %6) #13
  store i32 0, ptr %6, align 4, !tbaa !16
  call void @llvm.lifetime.start.p0(i64 8, ptr %7) #13
  %26 = load ptr, ptr %3, align 8, !tbaa !3
  %27 = call ptr @agfstnode(ptr noundef %26)
  store ptr %27, ptr %7, align 8, !tbaa !18
  br label %28

28:                                               ; preds = %39, %21
  %29 = load ptr, ptr %7, align 8, !tbaa !18
  %30 = icmp ne ptr %29, null
  br i1 %30, label %32, label %31

31:                                               ; preds = %28
  call void @llvm.lifetime.end.p0(i64 8, ptr %7) #13
  br label %43

32:                                               ; preds = %28
  %33 = load i32, ptr %6, align 4, !tbaa !16
  %34 = add nsw i32 %33, 1
  store i32 %34, ptr %6, align 4, !tbaa !16
  %35 = load ptr, ptr %7, align 8, !tbaa !18
  %36 = getelementptr inbounds nuw %struct.Agobj_s, ptr %35, i32 0, i32 1
  %37 = load ptr, ptr %36, align 8, !tbaa !20
  %38 = getelementptr inbounds nuw %struct.Agnodeinfo_t, ptr %37, i32 0, i32 19
  store i32 %33, ptr %38, align 4, !tbaa !25
  br label %39

39:                                               ; preds = %32
  %40 = load ptr, ptr %3, align 8, !tbaa !3
  %41 = load ptr, ptr %7, align 8, !tbaa !18
  %42 = call ptr @agnxtnode(ptr noundef %40, ptr noundef %41)
  store ptr %42, ptr %7, align 8, !tbaa !18
  br label %28, !llvm.loop !51

43:                                               ; preds = %31
  call void @llvm.lifetime.start.p0(i64 8, ptr %8) #13
  %44 = load i32, ptr %5, align 4, !tbaa !16
  %45 = sext i32 %44 to i64
  %46 = call ptr @gv_calloc(i64 noundef %45, i64 noundef 4)
  store ptr %46, ptr %8, align 8, !tbaa !8
  call void @llvm.lifetime.start.p0(i64 8, ptr %9) #13
  %47 = load i32, ptr %5, align 4, !tbaa !16
  %48 = sext i32 %47 to i64
  %49 = call ptr @gv_calloc(i64 noundef %48, i64 noundef 4)
  store ptr %49, ptr %9, align 8, !tbaa !8
  call void @llvm.lifetime.start.p0(i64 8, ptr %10) #13
  %50 = load i32, ptr %5, align 4, !tbaa !16
  %51 = sext i32 %50 to i64
  %52 = call ptr @gv_calloc(i64 noundef %51, i64 noundef 8)
  store ptr %52, ptr %10, align 8, !tbaa !14
  call void @llvm.lifetime.start.p0(i64 8, ptr %11) #13
  %53 = load ptr, ptr %3, align 8, !tbaa !3
  %54 = call ptr @agattr(ptr noundef %53, i32 noundef 2, ptr noundef @.str.1, ptr noundef null)
  store ptr %54, ptr %11, align 8, !tbaa !52
  store i32 0, ptr %6, align 4, !tbaa !16
  call void @llvm.lifetime.start.p0(i64 8, ptr %12) #13
  %55 = load ptr, ptr %3, align 8, !tbaa !3
  %56 = call ptr @agfstnode(ptr noundef %55)
  store ptr %56, ptr %12, align 8, !tbaa !18
  br label %57

57:                                               ; preds = %124, %43
  %58 = load ptr, ptr %12, align 8, !tbaa !18
  %59 = icmp ne ptr %58, null
  br i1 %59, label %61, label %60

60:                                               ; preds = %57
  store i32 5, ptr %13, align 4
  call void @llvm.lifetime.end.p0(i64 8, ptr %12) #13
  br label %128

61:                                               ; preds = %57
  call void @llvm.lifetime.start.p0(i64 4, ptr %14) #13
  %62 = load ptr, ptr %12, align 8, !tbaa !18
  %63 = getelementptr inbounds nuw %struct.Agobj_s, ptr %62, i32 0, i32 1
  %64 = load ptr, ptr %63, align 8, !tbaa !20
  %65 = getelementptr inbounds nuw %struct.Agnodeinfo_t, ptr %64, i32 0, i32 19
  %66 = load i32, ptr %65, align 4, !tbaa !25
  store i32 %66, ptr %14, align 4, !tbaa !16
  call void @llvm.lifetime.start.p0(i64 8, ptr %15) #13
  %67 = load ptr, ptr %3, align 8, !tbaa !3
  %68 = load ptr, ptr %12, align 8, !tbaa !18
  %69 = call ptr @agfstout(ptr noundef %67, ptr noundef %68)
  store ptr %69, ptr %15, align 8, !tbaa !54
  br label %70

70:                                               ; preds = %119, %61
  %71 = load ptr, ptr %15, align 8, !tbaa !54
  %72 = icmp ne ptr %71, null
  br i1 %72, label %74, label %73

73:                                               ; preds = %70
  store i32 8, ptr %13, align 4
  call void @llvm.lifetime.end.p0(i64 8, ptr %15) #13
  br label %123

74:                                               ; preds = %70
  %75 = load i32, ptr %14, align 4, !tbaa !16
  %76 = load ptr, ptr %8, align 8, !tbaa !8
  %77 = load i32, ptr %6, align 4, !tbaa !16
  %78 = sext i32 %77 to i64
  %79 = getelementptr inbounds i32, ptr %76, i64 %78
  store i32 %75, ptr %79, align 4, !tbaa !16
  %80 = load ptr, ptr %15, align 8, !tbaa !54
  %81 = getelementptr inbounds nuw %struct.Agobj_s, ptr %80, i32 0, i32 0
  %82 = load i32, ptr %81, align 8
  %83 = and i32 %82, 3
  %84 = icmp eq i32 %83, 2
  br i1 %84, label %85, label %87

85:                                               ; preds = %74
  %86 = load ptr, ptr %15, align 8, !tbaa !54
  br label %90

87:                                               ; preds = %74
  %88 = load ptr, ptr %15, align 8, !tbaa !54
  %89 = getelementptr inbounds %struct.Agedge_s, ptr %88, i64 -1
  br label %90

90:                                               ; preds = %87, %85
  %91 = phi ptr [ %86, %85 ], [ %89, %87 ]
  %92 = getelementptr inbounds nuw %struct.Agedge_s, ptr %91, i32 0, i32 3
  %93 = load ptr, ptr %92, align 8, !tbaa !55
  %94 = getelementptr inbounds nuw %struct.Agobj_s, ptr %93, i32 0, i32 1
  %95 = load ptr, ptr %94, align 8, !tbaa !20
  %96 = getelementptr inbounds nuw %struct.Agnodeinfo_t, ptr %95, i32 0, i32 19
  %97 = load i32, ptr %96, align 4, !tbaa !25
  %98 = load ptr, ptr %9, align 8, !tbaa !8
  %99 = load i32, ptr %6, align 4, !tbaa !16
  %100 = sext i32 %99 to i64
  %101 = getelementptr inbounds i32, ptr %98, i64 %100
  store i32 %97, ptr %101, align 4, !tbaa !16
  call void @llvm.lifetime.start.p0(i64 8, ptr %16) #13
  %102 = load ptr, ptr %11, align 8, !tbaa !52
  %103 = icmp ne ptr %102, null
  br i1 %103, label %104, label %110

104:                                              ; preds = %90
  %105 = load ptr, ptr %15, align 8, !tbaa !54
  %106 = load ptr, ptr %11, align 8, !tbaa !52
  %107 = call ptr @agxget(ptr noundef %105, ptr noundef %106)
  %108 = call i32 (ptr, ptr, ...) @__isoc99_sscanf(ptr noundef %107, ptr noundef @.str.2, ptr noundef %16) #13
  %109 = icmp ne i32 %108, 1
  br i1 %109, label %110, label %111

110:                                              ; preds = %104, %90
  store double 1.000000e+00, ptr %16, align 8, !tbaa !40
  br label %111

111:                                              ; preds = %110, %104
  %112 = load double, ptr %16, align 8, !tbaa !40
  %113 = load ptr, ptr %10, align 8, !tbaa !14
  %114 = load i32, ptr %6, align 4, !tbaa !16
  %115 = sext i32 %114 to i64
  %116 = getelementptr inbounds double, ptr %113, i64 %115
  store double %112, ptr %116, align 8, !tbaa !40
  %117 = load i32, ptr %6, align 4, !tbaa !16
  %118 = add nsw i32 %117, 1
  store i32 %118, ptr %6, align 4, !tbaa !16
  call void @llvm.lifetime.end.p0(i64 8, ptr %16) #13
  br label %119

119:                                              ; preds = %111
  %120 = load ptr, ptr %3, align 8, !tbaa !3
  %121 = load ptr, ptr %15, align 8, !tbaa !54
  %122 = call ptr @agnxtout(ptr noundef %120, ptr noundef %121)
  store ptr %122, ptr %15, align 8, !tbaa !54
  br label %70, !llvm.loop !59

123:                                              ; preds = %73
  call void @llvm.lifetime.end.p0(i64 4, ptr %14) #13
  br label %124

124:                                              ; preds = %123
  %125 = load ptr, ptr %3, align 8, !tbaa !3
  %126 = load ptr, ptr %12, align 8, !tbaa !18
  %127 = call ptr @agnxtnode(ptr noundef %125, ptr noundef %126)
  store ptr %127, ptr %12, align 8, !tbaa !18
  br label %57, !llvm.loop !60

128:                                              ; preds = %60
  call void @llvm.lifetime.start.p0(i64 8, ptr %17) #13
  %129 = load i32, ptr %5, align 4, !tbaa !16
  %130 = load i32, ptr %4, align 4, !tbaa !16
  %131 = load i32, ptr %4, align 4, !tbaa !16
  %132 = load ptr, ptr %8, align 8, !tbaa !8
  %133 = load ptr, ptr %9, align 8, !tbaa !8
  %134 = load ptr, ptr %10, align 8, !tbaa !14
  %135 = call ptr @SparseMatrix_from_coordinate_arrays(i32 noundef %129, i32 noundef %130, i32 noundef %131, ptr noundef %132, ptr noundef %133, ptr noundef %134, i32 noundef 1, i64 noundef 8)
  store ptr %135, ptr %17, align 8, !tbaa !61
  %136 = load ptr, ptr %8, align 8, !tbaa !8
  call void @free(ptr noundef %136) #13
  %137 = load ptr, ptr %9, align 8, !tbaa !8
  call void @free(ptr noundef %137) #13
  %138 = load ptr, ptr %10, align 8, !tbaa !14
  call void @free(ptr noundef %138) #13
  %139 = load ptr, ptr %17, align 8, !tbaa !61
  store ptr %139, ptr %2, align 8
  store i32 1, ptr %13, align 4
  call void @llvm.lifetime.end.p0(i64 8, ptr %17) #13
  call void @llvm.lifetime.end.p0(i64 8, ptr %11) #13
  call void @llvm.lifetime.end.p0(i64 8, ptr %10) #13
  call void @llvm.lifetime.end.p0(i64 8, ptr %9) #13
  call void @llvm.lifetime.end.p0(i64 8, ptr %8) #13
  call void @llvm.lifetime.end.p0(i64 4, ptr %6) #13
  call void @llvm.lifetime.end.p0(i64 4, ptr %5) #13
  call void @llvm.lifetime.end.p0(i64 4, ptr %4) #13
  br label %140

140:                                              ; preds = %128, %20
  %141 = load ptr, ptr %2, align 8
  ret ptr %141
}