; Function Attrs: nounwind uwtable
define ptr @makeMatrix(ptr noundef %0) local_unnamed_addr #0 {
  %2 = alloca double, align 8
  %.not = icmp eq ptr %0, null
  br i1 %.not, label %92, label %3

3:                                                ; preds = %1
  %4 = tail call i32 @agnnodes(ptr noundef nonnull %0) #20
  %5 = tail call i32 @agnedges(ptr noundef nonnull %0) #20
  %6 = tail call ptr @agfstnode(ptr noundef nonnull %0) #20
  %.not5370 = icmp eq ptr %6, null
  br i1 %.not5370, label %._crit_edge, label %.lr.ph

._crit_edge:                                      ; preds = %.lr.ph, %3
  %7 = sext i32 %5 to i64
  %.not.i = icmp eq i32 %5, 0
  br i1 %.not.i, label %.thread.i66, label %8

8:                                                ; preds = %._crit_edge
  %mul.ov.i = icmp slt i32 %5, 0
  br i1 %mul.ov.i, label %9, label %12

9:                                                ; preds = %8
  %10 = load ptr, ptr @stderr, align 8, !tbaa !7
  %11 = tail call i32 (ptr, ptr, ...) @fprintf(ptr noundef %10, ptr noundef nonnull @.str.11, i64 noundef %7, i64 noundef 4) #22
  tail call fastcc void @graphviz_exit() #23
  unreachable

12:                                               ; preds = %8
  %13 = tail call noalias ptr @calloc(i64 noundef %7, i64 noundef 4) #21
  %14 = icmp eq ptr %13, null
  br i1 %14, label %15, label %gv_calloc.exit

15:                                               ; preds = %12
  %16 = load ptr, ptr @stderr, align 8, !tbaa !7
  %17 = shl nuw nsw i64 %7, 2
  %18 = tail call i32 (ptr, ptr, ...) @fprintf(ptr noundef %16, ptr noundef nonnull @.str.12, i64 noundef %17) #22
  tail call fastcc void @graphviz_exit() #23
  unreachable

gv_calloc.exit:                                   ; preds = %12
  %19 = tail call noalias ptr @calloc(i64 noundef %7, i64 noundef 4) #21
  %20 = icmp eq ptr %19, null
  br i1 %20, label %21, label %gv_calloc.exit62

21:                                               ; preds = %gv_calloc.exit
  %22 = load ptr, ptr @stderr, align 8, !tbaa !7
  %23 = shl nuw nsw i64 %7, 2
  %24 = tail call i32 (ptr, ptr, ...) @fprintf(ptr noundef %22, ptr noundef nonnull @.str.12, i64 noundef %23) #22
  tail call fastcc void @graphviz_exit() #23
  unreachable

.thread.i66:                                      ; preds = %._crit_edge
  %25 = tail call noalias ptr @calloc(i64 noundef 0, i64 noundef 4) #21
  %26 = tail call noalias ptr @calloc(i64 noundef 0, i64 noundef 4) #21
  %27 = tail call noalias ptr @calloc(i64 noundef 0, i64 noundef 8) #21
  br label %gv_calloc.exit67

gv_calloc.exit62:                                 ; preds = %gv_calloc.exit
  %28 = tail call noalias ptr @calloc(i64 noundef %7, i64 noundef 8) #21
  %29 = icmp eq ptr %28, null
  br i1 %29, label %30, label %gv_calloc.exit67

30:                                               ; preds = %gv_calloc.exit62
  %31 = load ptr, ptr @stderr, align 8, !tbaa !7
  %32 = shl nuw nsw i64 %7, 3
  %33 = tail call i32 (ptr, ptr, ...) @fprintf(ptr noundef %31, ptr noundef nonnull @.str.12, i64 noundef %32) #22
  tail call fastcc void @graphviz_exit() #23
  unreachable

gv_calloc.exit67:                                 ; preds = %.thread.i66, %gv_calloc.exit62
  %34 = phi ptr [ %26, %.thread.i66 ], [ %19, %gv_calloc.exit62 ]
  %35 = phi ptr [ %25, %.thread.i66 ], [ %13, %gv_calloc.exit62 ]
  %36 = phi ptr [ %27, %.thread.i66 ], [ %28, %gv_calloc.exit62 ]
  %37 = tail call ptr @agattr(ptr noundef nonnull %0, i32 noundef 2, ptr noundef nonnull @.str.1, ptr noundef null) #20
  %.fr = freeze ptr %37
  %38 = tail call ptr @agfstnode(ptr noundef nonnull %0) #20
  %.not5479 = icmp eq ptr %38, null
  br i1 %.not5479, label %._crit_edge83, label %.lr.ph82

.lr.ph82:                                         ; preds = %gv_calloc.exit67
  %.not56 = icmp eq ptr %.fr, null
  br i1 %.not56, label %.lr.ph82.split.us, label %.lr.ph82.split

.lr.ph82.split.us:                                ; preds = %.lr.ph82, %._crit_edge78.split.us.us
  %.181.us = phi i32 [ %.2.lcssa.us, %._crit_edge78.split.us.us ], [ 0, %.lr.ph82 ]
  %.04980.us = phi ptr [ %46, %._crit_edge78.split.us.us ], [ %38, %.lr.ph82 ]
  %39 = getelementptr inbounds nuw i8, ptr %.04980.us, i64 16
  %40 = load ptr, ptr %39, align 8, !tbaa !10
  %41 = getelementptr inbounds nuw i8, ptr %40, i64 164
  %42 = load i32, ptr %41, align 4, !tbaa !16
  %43 = tail call ptr @agfstout(ptr noundef nonnull %0, ptr noundef nonnull %.04980.us) #20
  %.not5573.us = icmp eq ptr %43, null
  br i1 %.not5573.us, label %._crit_edge78.split.us.us, label %.lr.ph77.us.preheader

.lr.ph77.us.preheader:                            ; preds = %.lr.ph82.split.us
  %44 = sext i32 %.181.us to i64
  br label %.lr.ph77.us

._crit_edge78.split.us.us.loopexit:               ; preds = %.lr.ph77.us
  %45 = trunc nsw i64 %indvars.iv.next88 to i32
  br label %._crit_edge78.split.us.us

._crit_edge78.split.us.us:                        ; preds = %._crit_edge78.split.us.us.loopexit, %.lr.ph82.split.us
  %.2.lcssa.us = phi i32 [ %.181.us, %.lr.ph82.split.us ], [ %45, %._crit_edge78.split.us.us.loopexit ]
  %46 = tail call ptr @agnxtnode(ptr noundef nonnull %0, ptr noundef nonnull %.04980.us) #20
  %.not54.us = icmp eq ptr %46, null
  br i1 %.not54.us, label %._crit_edge83, label %.lr.ph82.split.us, !llvm.loop !41

.lr.ph77.us:                                      ; preds = %.lr.ph77.us.preheader, %.lr.ph77.us
  %indvars.iv87 = phi i64 [ %44, %.lr.ph77.us.preheader ], [ %indvars.iv.next88, %.lr.ph77.us ]
  %.04775.us.us = phi ptr [ %43, %.lr.ph77.us.preheader ], [ %60, %.lr.ph77.us ]
  %47 = getelementptr inbounds i32, ptr %35, i64 %indvars.iv87
  store i32 %42, ptr %47, align 4, !tbaa !39
  %48 = load i32, ptr %.04775.us.us, align 8
  %49 = and i32 %48, 3
  %50 = icmp eq i32 %49, 2
  %.idx.us.us = select i1 %50, i64 0, i64 -64
  %51 = getelementptr inbounds i8, ptr %.04775.us.us, i64 %.idx.us.us
  %52 = getelementptr inbounds nuw i8, ptr %51, i64 56
  %53 = load ptr, ptr %52, align 8, !tbaa !42
  %54 = getelementptr inbounds nuw i8, ptr %53, i64 16
  %55 = load ptr, ptr %54, align 8, !tbaa !10
  %56 = getelementptr inbounds nuw i8, ptr %55, i64 164
  %57 = load i32, ptr %56, align 4, !tbaa !16
  %58 = getelementptr inbounds i32, ptr %34, i64 %indvars.iv87
  store i32 %57, ptr %58, align 4, !tbaa !39
  call void @llvm.lifetime.start.p0(i64 8, ptr nonnull %2) #20
  %59 = getelementptr inbounds double, ptr %36, i64 %indvars.iv87
  store double 1.000000e+00, ptr %59, align 8, !tbaa !33
  %indvars.iv.next88 = add nsw i64 %indvars.iv87, 1
  call void @llvm.lifetime.end.p0(i64 8, ptr nonnull %2) #20
  %60 = tail call ptr @agnxtout(ptr noundef nonnull %0, ptr noundef nonnull %.04775.us.us) #20
  %.not55.us.us = icmp eq ptr %60, null
  br i1 %.not55.us.us, label %._crit_edge78.split.us.us.loopexit, label %.lr.ph77.us, !llvm.loop !46

.lr.ph:                                           ; preds = %3, %.lr.ph
  %.04872 = phi i32 [ %61, %.lr.ph ], [ 0, %3 ]
  %.05071 = phi ptr [ %65, %.lr.ph ], [ %6, %3 ]
  %61 = add nuw nsw i32 %.04872, 1
  %62 = getelementptr inbounds nuw i8, ptr %.05071, i64 16
  %63 = load ptr, ptr %62, align 8, !tbaa !10
  %64 = getelementptr inbounds nuw i8, ptr %63, i64 164
  store i32 %.04872, ptr %64, align 4, !tbaa !16
  %65 = tail call ptr @agnxtnode(ptr noundef nonnull %0, ptr noundef nonnull %.05071) #20
  %.not53 = icmp eq ptr %65, null
  br i1 %.not53, label %._crit_edge, label %.lr.ph, !llvm.loop !47

._crit_edge83:                                    ; preds = %._crit_edge78.split, %._crit_edge78.split.us.us, %gv_calloc.exit67
  %66 = call ptr @SparseMatrix_from_coordinate_arrays(i32 noundef %5, i32 noundef %4, i32 noundef %4, ptr noundef %35, ptr noundef %34, ptr noundef %36, i32 noundef 1, i64 noundef 8) #20
  call void @free(ptr noundef %35) #20
  call void @free(ptr noundef %34) #20
  call void @free(ptr noundef %36) #20
  br label %92

.lr.ph82.split:                                   ; preds = %.lr.ph82, %._crit_edge78.split
  %.181 = phi i32 [ %.2.lcssa, %._crit_edge78.split ], [ 0, %.lr.ph82 ]
  %.04980 = phi ptr [ %74, %._crit_edge78.split ], [ %38, %.lr.ph82 ]
  %67 = getelementptr inbounds nuw i8, ptr %.04980, i64 16
  %68 = load ptr, ptr %67, align 8, !tbaa !10
  %69 = getelementptr inbounds nuw i8, ptr %68, i64 164
  %70 = load i32, ptr %69, align 4, !tbaa !16
  %71 = call ptr @agfstout(ptr noundef nonnull %0, ptr noundef nonnull %.04980) #20
  %.not5573 = icmp eq ptr %71, null
  br i1 %.not5573, label %._crit_edge78.split, label %.lr.ph77.preheader

.lr.ph77.preheader:                               ; preds = %.lr.ph82.split
  %72 = sext i32 %.181 to i64
  br label %.lr.ph77

._crit_edge78.split.loopexit:                     ; preds = %.lr.ph77
  %73 = trunc nsw i64 %indvars.iv.next to i32
  br label %._crit_edge78.split

._crit_edge78.split:                              ; preds = %._crit_edge78.split.loopexit, %.lr.ph82.split
  %.2.lcssa = phi i32 [ %.181, %.lr.ph82.split ], [ %73, %._crit_edge78.split.loopexit ]
  %74 = call ptr @agnxtnode(ptr noundef nonnull %0, ptr noundef nonnull %.04980) #20
  %.not54 = icmp eq ptr %74, null
  br i1 %.not54, label %._crit_edge83, label %.lr.ph82.split, !llvm.loop !41

.lr.ph77:                                         ; preds = %.lr.ph77.preheader, %.lr.ph77
  %indvars.iv = phi i64 [ %72, %.lr.ph77.preheader ], [ %indvars.iv.next, %.lr.ph77 ]
  %.04775 = phi ptr [ %71, %.lr.ph77.preheader ], [ %91, %.lr.ph77 ]
  %75 = getelementptr inbounds i32, ptr %35, i64 %indvars.iv
  store i32 %70, ptr %75, align 4, !tbaa !39
  %76 = load i32, ptr %.04775, align 8
  %77 = and i32 %76, 3
  %78 = icmp eq i32 %77, 2
  %.idx = select i1 %78, i64 0, i64 -64
  %79 = getelementptr inbounds i8, ptr %.04775, i64 %.idx
  %80 = getelementptr inbounds nuw i8, ptr %79, i64 56
  %81 = load ptr, ptr %80, align 8, !tbaa !42
  %82 = getelementptr inbounds nuw i8, ptr %81, i64 16
  %83 = load ptr, ptr %82, align 8, !tbaa !10
  %84 = getelementptr inbounds nuw i8, ptr %83, i64 164
  %85 = load i32, ptr %84, align 4, !tbaa !16
  %86 = getelementptr inbounds i32, ptr %34, i64 %indvars.iv
  store i32 %85, ptr %86, align 4, !tbaa !39
  call void @llvm.lifetime.start.p0(i64 8, ptr nonnull %2) #20
  %87 = call ptr @agxget(ptr noundef nonnull %.04775, ptr noundef nonnull %.fr) #20
  %88 = call i32 (ptr, ptr, ...) @__isoc99_sscanf(ptr noundef %87, ptr noundef nonnull @.str.2, ptr noundef nonnull %2) #20
  %.not57 = icmp eq i32 %88, 1
  %.pre = load double, ptr %2, align 8
  %89 = select i1 %.not57, double %.pre, double 1.000000e+00
  %90 = getelementptr inbounds double, ptr %36, i64 %indvars.iv
  store double %89, ptr %90, align 8, !tbaa !33
  %indvars.iv.next = add nsw i64 %indvars.iv, 1
  call void @llvm.lifetime.end.p0(i64 8, ptr nonnull %2) #20
  %91 = call ptr @agnxtout(ptr noundef nonnull %0, ptr noundef nonnull %.04775) #20
  %.not55 = icmp eq ptr %91, null
  br i1 %.not55, label %._crit_edge78.split.loopexit, label %.lr.ph77, !llvm.loop !46

92:                                               ; preds = %1, %._crit_edge83
  %.0 = phi ptr [ %66, %._crit_edge83 ], [ null, %1 ]
  ret ptr %.0
}